target datalayout = "e-m:e-p270:32:32-p271:32:32-p272:64:64-i64:64-i128:128-f80:128-n8:16:32:64-S128"
target triple = "x86_64-pc-linux-gnu"

%struct.QMetaObject = type { %struct.anon.205 }
%struct.anon.205 = type { %"struct.QMetaObject::SuperData", ptr, ptr, ptr, ptr, ptr }
%"struct.QMetaObject::SuperData" = type { ptr }
%class.QString = type { ptr }
%class.QObject = type { ptr, %class.QScopedPointer }
%class.QScopedPointer = type { ptr }
%class.QualityMapperDialog = type { %class.QDockWidget, %"class.Ui::QualityMapperDialogClass", ptr, ptr, %class.QGraphicsScene, [3 x ptr], double, i8, i8, %class.QList, i32, ptr, ptr, ptr, %class.QGraphicsScene, ptr, [3 x %class.QList.22], ptr, %class.QString, %class.QList, %class.QList, i8, %class.QList.25, %class.QList, ptr, ptr }
%class.QDockWidget = type { %class.QWidget }
%class.QWidget = type { %class.QObject, %class.QPaintDevice, ptr }
%class.QPaintDevice = type { ptr, i16, ptr }
%"class.Ui::QualityMapperDialogClass" = type { %class.Ui_QualityMapperDialogClass }
%class.Ui_QualityMapperDialogClass = type { ptr, ptr, ptr, ptr, ptr, ptr, ptr, ptr, ptr, ptr, ptr, ptr, ptr, ptr, ptr, ptr, ptr, ptr, ptr, ptr, ptr, ptr, ptr, ptr, ptr, ptr, ptr, ptr, ptr, ptr, ptr, ptr, ptr, ptr, ptr, ptr, ptr, ptr, ptr, ptr, ptr, ptr, ptr, ptr, ptr, ptr, ptr, ptr, ptr, ptr, ptr, ptr, ptr, ptr, ptr, ptr, ptr, ptr, ptr, ptr, ptr, ptr, ptr, ptr, ptr, ptr, ptr, ptr }
%class.QGraphicsScene = type { %class.QObject }
%class.QList.22 = type { %union.anon.24 }
%union.anon.24 = type { %struct.QListData }
%struct.QListData = type { ptr }
%class.QList.25 = type { %union.anon.27 }
%union.anon.27 = type { %struct.QListData }
%class.QList = type { %union.anon }
%union.anon = type { %struct.QListData }
%class.QFlags.198 = type { i32 }

@_ZN19QualityMapperDialog16staticMetaObjectE = external global %struct.QMetaObject, align 8
@.str.144 = private unnamed_addr constant [17 x i8] c"Wrong text value\00", align 1
@.str.145 = private unnamed_addr constant [89 x i8] c"The value inserted in the text area has a bad range value or is of a not compatible type\00", align 1

; Function Attrs: mustprogress nounwind uwtable
define linkonce_odr void @_ZN6QFlagsIN11QMessageBox14StandardButtonEEC2ES1_(ptr noundef nonnull align 4 dereferenceable(4) %0, i32 noundef %1) unnamed_addr #4 comdat align 2 {
  %3 = alloca ptr, align 8
  %4 = alloca i32, align 4
  store ptr %0, ptr %3, align 8
  store i32 %1, ptr %4, align 4
  %5 = load ptr, ptr %3, align 8
  %6 = getelementptr inbounds %class.QFlags.198, ptr %5, i32 0, i32 0
  %7 = load i32, ptr %4, align 4
  store i32 %7, ptr %6, align 4
  ret void
}

; Function Attrs: mustprogress uwtable
define linkonce_odr void @_ZN19QualityMapperDialog2trEPKcS1_i(ptr dead_on_unwind noalias writable sret(%class.QString) align 8 %0, ptr noundef %1, ptr noundef %2, i32 noundef %3) #5 comdat align 2 {
  %5 = alloca ptr, align 8
  %6 = alloca ptr, align 8
  %7 = alloca ptr, align 8
  %8 = alloca i32, align 4
  store ptr %0, ptr %5, align 8
  store ptr %1, ptr %6, align 8
  store ptr %2, ptr %7, align 8
  store i32 %3, ptr %8, align 4
  %9 = load ptr, ptr %6, align 8
  %10 = load ptr, ptr %7, align 8
  %11 = load i32, ptr %8, align 4
  call void @_ZNK11QMetaObject2trEPKcS1_i(ptr dead_on_unwind writable sret(%class.QString) align 8 %0, ptr noundef nonnull align 8 dereferenceable(48) @_ZN19QualityMapperDialog16staticMetaObjectE, ptr noundef %9, ptr noundef %10, i32 noundef %11)
  ret void
}

; Function Attrs: mustprogress uwtable
define void @_ZN19QualityMapperDialog36on_midPercentageLine_editingFinishedEv(ptr noundef nonnull align 8 dereferenceable(824) %0) #5 align 2 personality ptr @__gxx_personality_v0 {
  %2 = alloca ptr, align 8
  %3 = alloca i8, align 1
  %4 = alloca float, align 4
  %5 = alloca %class.QString, align 8
  %6 = alloca ptr, align 8
  %7 = alloca i32, align 4
  %8 = alloca %class.QString, align 8
  %9 = alloca %class.QString, align 8
  %10 = alloca %class.QFlags.198, align 4
  store ptr %0, ptr %2, align 8
  %11 = load ptr, ptr %2, align 8
  %12 = getelementptr inbounds %class.QualityMapperDialog, ptr %11, i32 0, i32 1
  %13 = getelementptr inbounds %class.Ui_QualityMapperDialogClass, ptr %12, i32 0, i32 43
  %14 = load ptr, ptr %13, align 8
  call void @_ZNK9QLineEdit4textEv(ptr dead_on_unwind writable sret(%class.QString) align 8 %5, ptr noundef nonnull align 8 dereferenceable(48) %14)
  %15 = invoke noundef float @_ZNK7QString7toFloatEPb(ptr noundef nonnull align 8 dereferenceable(8) %5, ptr noundef %3)
          to label %16 unwind label %26

16:                                               ; preds = %1
  call void @_ZN7QStringD2Ev(ptr noundef nonnull align 8 dereferenceable(8) %5) #3
  store float %15, ptr %4, align 4
  %17 = getelementptr inbounds %class.QualityMapperDialog, ptr %11, i32 0, i32 10
  store i32 2, ptr %17, align 8
  %18 = getelementptr inbounds %class.QualityMapperDialog, ptr %11, i32 0, i32 10
  %19 = load i32, ptr %18, align 8
  %20 = icmp ne i32 %19, 1
  br i1 %20, label %21, label %30

21:                                               ; preds = %16
  %22 = getelementptr inbounds %class.QualityMapperDialog, ptr %11, i32 0, i32 1
  %23 = getelementptr inbounds %class.Ui_QualityMapperDialogClass, ptr %22, i32 0, i32 41
  %24 = load ptr, ptr %23, align 8
  %25 = call noundef zeroext i1 @_ZN7QObject12blockSignalsEb(ptr noundef nonnull align 8 dereferenceable(16) %24, i1 noundef zeroext true) #3
  br label %30

26:                                               ; preds = %1
  %27 = landingpad { ptr, i32 }
          cleanup
  %28 = extractvalue { ptr, i32 } %27, 0
  store ptr %28, ptr %6, align 8
  %29 = extractvalue { ptr, i32 } %27, 1
  store i32 %29, ptr %7, align 4
  call void @_ZN7QStringD2Ev(ptr noundef nonnull align 8 dereferenceable(8) %5) #3
  br label %95

30:                                               ; preds = %21, %16
  %31 = load i8, ptr %3, align 1
  %32 = trunc i8 %31 to i1
  br i1 %32, label %33, label %69

33:                                               ; preds = %30
  %34 = load float, ptr %4, align 4
  %35 = fcmp oge float %34, 0.000000e+00
  br i1 %35, label %36, label %69

36:                                               ; preds = %33
  %37 = load float, ptr %4, align 4
  %38 = fcmp ole float %37, 1.000000e+02
  br i1 %38, label %39, label %69

39:                                               ; preds = %36
  %40 = getelementptr inbounds %class.QualityMapperDialog, ptr %11, i32 0, i32 1
  %41 = getelementptr inbounds %class.Ui_QualityMapperDialogClass, ptr %40, i32 0, i32 41
  %42 = load ptr, ptr %41, align 8
  %43 = getelementptr inbounds %class.QualityMapperDialog, ptr %11, i32 0, i32 1
  %44 = getelementptr inbounds %class.Ui_QualityMapperDialogClass, ptr %43, i32 0, i32 38
  %45 = load ptr, ptr %44, align 8
  %46 = call noundef double @_ZNK14QDoubleSpinBox5valueEv(ptr noundef nonnull align 8 dereferenceable(48) %45)
  %47 = load float, ptr %4, align 4
  %48 = getelementptr inbounds %class.QualityMapperDialog, ptr %11, i32 0, i32 1
  %49 = getelementptr inbounds %class.Ui_QualityMapperDialogClass, ptr %48, i32 0, i32 46
  %50 = load ptr, ptr %49, align 8
  %51 = call noundef double @_ZNK14QDoubleSpinBox5valueEv(ptr noundef nonnull align 8 dereferenceable(48) %50)
  %52 = getelementptr inbounds %class.QualityMapperDialog, ptr %11, i32 0, i32 1
  %53 = getelementptr inbounds %class.Ui_QualityMapperDialogClass, ptr %52, i32 0, i32 38
  %54 = load ptr, ptr %53, align 8
  %55 = call noundef double @_ZNK14QDoubleSpinBox5valueEv(ptr noundef nonnull align 8 dereferenceable(48) %54)
  %56 = fsub double %51, %55
  %57 = fptrunc double %56 to float
  %58 = call noundef float @_Z21relative2AbsoluteValfff(float noundef %47, float noundef %57)
  %59 = fdiv float %58, 1.000000e+02
  %60 = fpext float %59 to double
  %61 = fadd double %46, %60
  call void @_ZN14QDoubleSpinBox8setValueEd(ptr noundef nonnull align 8 dereferenceable(48) %42, double noundef %61)
  %62 = getelementptr inbounds %class.QualityMapperDialog, ptr %11, i32 0, i32 5
  %63 = getelementptr inbounds [3 x ptr], ptr %62, i64 0, i64 1
  %64 = load ptr, ptr %63, align 8
  %65 = getelementptr inbounds %class.QualityMapperDialog, ptr %11, i32 0, i32 1
  %66 = getelementptr inbounds %class.Ui_QualityMapperDialogClass, ptr %65, i32 0, i32 41
  %67 = load ptr, ptr %66, align 8
  %68 = call noundef double @_ZNK14QDoubleSpinBox5valueEv(ptr noundef nonnull align 8 dereferenceable(48) %67)
  call void @_ZN8EqHandle25setXBySpinBoxValueChangedEd(ptr noundef nonnull align 8 dereferenceable(152) %64, double noundef %68)
  br label %84

69:                                               ; preds = %36, %33, %30
  call void @_ZN19QualityMapperDialog2trEPKcS1_i(ptr dead_on_unwind writable sret(%class.QString) align 8 %8, ptr noundef @.str.144, ptr noundef null, i32 noundef -1)
  invoke void @_ZN19QualityMapperDialog2trEPKcS1_i(ptr dead_on_unwind writable sret(%class.QString) align 8 %9, ptr noundef @.str.145, ptr noundef null, i32 noundef -1)
          to label %70 unwind label %75

70:                                               ; preds = %69
  call void @_ZN6QFlagsIN11QMessageBox14StandardButtonEEC2ES1_(ptr noundef nonnull align 4 dereferenceable(4) %10, i32 noundef 1024) #3
  %71 = getelementptr inbounds %class.QFlags.198, ptr %10, i32 0, i32 0
  %72 = load i32, ptr %71, align 4
  %73 = invoke noundef i32 @_ZN11QMessageBox7warningEP7QWidgetRK7QStringS4_6QFlagsINS_14StandardButtonEES6_(ptr noundef %11, ptr noundef nonnull align 8 dereferenceable(8) %8, ptr noundef nonnull align 8 dereferenceable(8) %9, i32 %72, i32 noundef 0)
          to label %74 unwind label %79

74:                                               ; preds = %70
  call void @_ZN7QStringD2Ev(ptr noundef nonnull align 8 dereferenceable(8) %9) #3
  call void @_ZN7QStringD2Ev(ptr noundef nonnull align 8 dereferenceable(8) %8) #3
  br label %84

75:                                               ; preds = %69
  %76 = landingpad { ptr, i32 }
          cleanup
  %77 = extractvalue { ptr, i32 } %76, 0
  store ptr %77, ptr %6, align 8
  %78 = extractvalue { ptr, i32 } %76, 1
  store i32 %78, ptr %7, align 4
  br label %83

79:                                               ; preds = %70
  %80 = landingpad { ptr, i32 }
          cleanup
  %81 = extractvalue { ptr, i32 } %80, 0
  store ptr %81, ptr %6, align 8
  %82 = extractvalue { ptr, i32 } %80, 1
  store i32 %82, ptr %7, align 4
  call void @_ZN7QStringD2Ev(ptr noundef nonnull align 8 dereferenceable(8) %9) #3
  br label %83

83:                                               ; preds = %79, %75
  call void @_ZN7QStringD2Ev(ptr noundef nonnull align 8 dereferenceable(8) %8) #3
  br label %95

84:                                               ; preds = %74, %39
  %85 = getelementptr inbounds %class.QualityMapperDialog, ptr %11, i32 0, i32 10
  %86 = load i32, ptr %85, align 8
  %87 = icmp ne i32 %86, 1
  br i1 %87, label %88, label %93

88:                                               ; preds = %84
  %89 = getelementptr inbounds %class.QualityMapperDialog, ptr %11, i32 0, i32 1
  %90 = getelementptr inbounds %class.Ui_QualityMapperDialogClass, ptr %89, i32 0, i32 41
  %91 = load ptr, ptr %90, align 8
  %92 = call noundef zeroext i1 @_ZN7QObject12blockSignalsEb(ptr noundef nonnull align 8 dereferenceable(16) %91, i1 noundef zeroext false) #3
  br label %93

93:                                               ; preds = %88, %84
  %94 = getelementptr inbounds %class.QualityMapperDialog, ptr %11, i32 0, i32 10
  store i32 0, ptr %94, align 8
  ret void

95:                                               ; preds = %83, %26
  %96 = load ptr, ptr %6, align 8
  %97 = load i32, ptr %7, align 4
  %98 = insertvalue { ptr, i32 } poison, ptr %96, 0
  %99 = insertvalue { ptr, i32 } %98, i32 %97, 1
  resume { ptr, i32 } %99
}