; Function Attrs: mustprogress uwtable
define void @_ZN19QualityMapperDialog36on_midPercentageLine_editingFinishedEv(ptr noundef nonnull align 8 dereferenceable(824) %0) local_unnamed_addr #9 align 2 personality ptr @__gxx_personality_v0 {
  %2 = alloca i8, align 1
  %3 = alloca %class.QString, align 8
  %4 = alloca %class.QString, align 8
  %5 = alloca %class.QString, align 8
  %6 = getelementptr inbounds i8, ptr %0, i64 392
  %7 = load ptr, ptr %6, align 8
  call void @_ZNK9QLineEdit4textEv(ptr dead_on_unwind nonnull writable sret(%class.QString) align 8 %3, ptr noundef nonnull align 8 dereferenceable(48) %7)
  %8 = invoke noundef float @_ZNK7QString7toFloatEPb(ptr noundef nonnull align 8 dereferenceable(8) %3, ptr noundef nonnull %2)
          to label %9 unwind label %23

9:                                                ; preds = %1
  %10 = load ptr, ptr %3, align 8
  %11 = load atomic i32, ptr %10 monotonic, align 4
  switch i32 %11, label %_ZN9QtPrivate8RefCount5derefEv.exit.i [
    i32 0, label %_ZN9QtPrivate8RefCount5derefEv.exit.thread2.i
    i32 -1, label %_ZN7QStringD2Ev.exit
  ]

_ZN9QtPrivate8RefCount5derefEv.exit.i:            ; preds = %9
  %12 = atomicrmw sub ptr %10, i32 1 seq_cst, align 4
  %.not.i = icmp eq i32 %12, 1
  br i1 %.not.i, label %_ZN9QtPrivate8RefCount5derefEv.exit._ZN9QtPrivate8RefCount5derefEv.exit.thread2_crit_edge.i, label %_ZN7QStringD2Ev.exit

_ZN9QtPrivate8RefCount5derefEv.exit._ZN9QtPrivate8RefCount5derefEv.exit.thread2_crit_edge.i: ; preds = %_ZN9QtPrivate8RefCount5derefEv.exit.i
  %.pre.i = load ptr, ptr %3, align 8
  br label %_ZN9QtPrivate8RefCount5derefEv.exit.thread2.i

_ZN9QtPrivate8RefCount5derefEv.exit.thread2.i:    ; preds = %_ZN9QtPrivate8RefCount5derefEv.exit._ZN9QtPrivate8RefCount5derefEv.exit.thread2_crit_edge.i, %9
  %13 = phi ptr [ %.pre.i, %_ZN9QtPrivate8RefCount5derefEv.exit._ZN9QtPrivate8RefCount5derefEv.exit.thread2_crit_edge.i ], [ %10, %9 ]
  call void @_ZN10QArrayData10deallocateEPS_mm(ptr noundef %13, i64 noundef 2, i64 noundef 8) #23
  br label %_ZN7QStringD2Ev.exit

_ZN7QStringD2Ev.exit:                             ; preds = %9, %_ZN9QtPrivate8RefCount5derefEv.exit.i, %_ZN9QtPrivate8RefCount5derefEv.exit.thread2.i
  %14 = getelementptr inbounds i8, ptr %0, i64 672
  store i32 2, ptr %14, align 8
  %15 = getelementptr inbounds i8, ptr %0, i64 376
  %16 = load ptr, ptr %15, align 8
  %17 = call noundef zeroext i1 @_ZN7QObject12blockSignalsEb(ptr noundef nonnull align 8 dereferenceable(16) %16, i1 noundef zeroext true) #23
  %18 = load i8, ptr %2, align 1
  %19 = and i8 %18, 1
  %20 = icmp ne i8 %19, 0
  %21 = fcmp oge float %8, 0.000000e+00
  %or.cond = and i1 %21, %20
  %22 = fcmp ole float %8, 1.000000e+02
  %or.cond3 = and i1 %22, %or.cond
  br i1 %or.cond3, label %25, label %45

23:                                               ; preds = %1
  %24 = landingpad { ptr, i32 }
          cleanup
  br label %65

25:                                               ; preds = %_ZN7QStringD2Ev.exit
  %26 = load ptr, ptr %15, align 8
  %27 = getelementptr inbounds i8, ptr %0, i64 352
  %28 = load ptr, ptr %27, align 8
  %29 = call noundef double @_ZNK14QDoubleSpinBox5valueEv(ptr noundef nonnull align 8 dereferenceable(48) %28)
  %30 = getelementptr inbounds i8, ptr %0, i64 416
  %31 = load ptr, ptr %30, align 8
  %32 = call noundef double @_ZNK14QDoubleSpinBox5valueEv(ptr noundef nonnull align 8 dereferenceable(48) %31)
  %33 = load ptr, ptr %27, align 8
  %34 = call noundef double @_ZNK14QDoubleSpinBox5valueEv(ptr noundef nonnull align 8 dereferenceable(48) %33)
  %35 = fsub double %32, %34
  %36 = fptrunc double %35 to float
  %37 = call noundef float @_Z21relative2AbsoluteValfff(float noundef %8, float noundef %36)
  %38 = fdiv float %37, 1.000000e+02
  %39 = fpext float %38 to double
  %40 = fadd double %29, %39
  call void @_ZN14QDoubleSpinBox8setValueEd(ptr noundef nonnull align 8 dereferenceable(48) %26, double noundef %40)
  %41 = getelementptr inbounds i8, ptr %0, i64 632
  %42 = load ptr, ptr %41, align 8
  %43 = load ptr, ptr %15, align 8
  %44 = call noundef double @_ZNK14QDoubleSpinBox5valueEv(ptr noundef nonnull align 8 dereferenceable(48) %43)
  call void @_ZN8EqHandle25setXBySpinBoxValueChangedEd(ptr noundef nonnull align 8 dereferenceable(152) %42, double noundef %44)
  br label %_ZN7QStringD2Ev.exit24

45:                                               ; preds = %_ZN7QStringD2Ev.exit
  call void @_ZNK11QMetaObject2trEPKcS1_i(ptr dead_on_unwind nonnull writable sret(%class.QString) align 8 %4, ptr noundef nonnull align 8 dereferenceable(48) @_ZN19QualityMapperDialog16staticMetaObjectE, ptr noundef nonnull @.str.144, ptr noundef null, i32 noundef -1)
  invoke void @_ZNK11QMetaObject2trEPKcS1_i(ptr dead_on_unwind nonnull writable sret(%class.QString) align 8 %5, ptr noundef nonnull align 8 dereferenceable(48) @_ZN19QualityMapperDialog16staticMetaObjectE, ptr noundef nonnull @.str.145, ptr noundef null, i32 noundef -1)
          to label %_ZN19QualityMapperDialog2trEPKcS1_i.exit unwind label %56

_ZN19QualityMapperDialog2trEPKcS1_i.exit:         ; preds = %45
  %46 = invoke noundef i32 @_ZN11QMessageBox7warningEP7QWidgetRK7QStringS4_6QFlagsINS_14StandardButtonEES6_(ptr noundef nonnull %0, ptr noundef nonnull align 8 dereferenceable(8) %4, ptr noundef nonnull align 8 dereferenceable(8) %5, i32 1024, i32 noundef 0)
          to label %47 unwind label %58

47:                                               ; preds = %_ZN19QualityMapperDialog2trEPKcS1_i.exit
  %48 = load ptr, ptr %5, align 8
  %49 = load atomic i32, ptr %48 monotonic, align 4
  switch i32 %49, label %_ZN9QtPrivate8RefCount5derefEv.exit.i14 [
    i32 0, label %_ZN9QtPrivate8RefCount5derefEv.exit.thread2.i13
    i32 -1, label %_ZN7QStringD2Ev.exit18
  ]

_ZN9QtPrivate8RefCount5derefEv.exit.i14:          ; preds = %47
  %50 = atomicrmw sub ptr %48, i32 1 seq_cst, align 4
  %.not.i15 = icmp eq i32 %50, 1
  br i1 %.not.i15, label %_ZN9QtPrivate8RefCount5derefEv.exit._ZN9QtPrivate8RefCount5derefEv.exit.thread2_crit_edge.i16, label %_ZN7QStringD2Ev.exit18

_ZN9QtPrivate8RefCount5derefEv.exit._ZN9QtPrivate8RefCount5derefEv.exit.thread2_crit_edge.i16: ; preds = %_ZN9QtPrivate8RefCount5derefEv.exit.i14
  %.pre.i17 = load ptr, ptr %5, align 8
  br label %_ZN9QtPrivate8RefCount5derefEv.exit.thread2.i13

_ZN9QtPrivate8RefCount5derefEv.exit.thread2.i13:  ; preds = %_ZN9QtPrivate8RefCount5derefEv.exit._ZN9QtPrivate8RefCount5derefEv.exit.thread2_crit_edge.i16, %47
  %51 = phi ptr [ %.pre.i17, %_ZN9QtPrivate8RefCount5derefEv.exit._ZN9QtPrivate8RefCount5derefEv.exit.thread2_crit_edge.i16 ], [ %48, %47 ]
  call void @_ZN10QArrayData10deallocateEPS_mm(ptr noundef %51, i64 noundef 2, i64 noundef 8) #23
  br label %_ZN7QStringD2Ev.exit18

_ZN7QStringD2Ev.exit18:                           ; preds = %47, %_ZN9QtPrivate8RefCount5derefEv.exit.i14, %_ZN9QtPrivate8RefCount5derefEv.exit.thread2.i13
  %52 = load ptr, ptr %4, align 8
  %53 = load atomic i32, ptr %52 monotonic, align 4
  switch i32 %53, label %_ZN9QtPrivate8RefCount5derefEv.exit.i20 [
    i32 0, label %_ZN9QtPrivate8RefCount5derefEv.exit.thread2.i19
    i32 -1, label %_ZN7QStringD2Ev.exit24
  ]

_ZN9QtPrivate8RefCount5derefEv.exit.i20:          ; preds = %_ZN7QStringD2Ev.exit18
  %54 = atomicrmw sub ptr %52, i32 1 seq_cst, align 4
  %.not.i21 = icmp eq i32 %54, 1
  br i1 %.not.i21, label %_ZN9QtPrivate8RefCount5derefEv.exit._ZN9QtPrivate8RefCount5derefEv.exit.thread2_crit_edge.i22, label %_ZN7QStringD2Ev.exit24

_ZN9QtPrivate8RefCount5derefEv.exit._ZN9QtPrivate8RefCount5derefEv.exit.thread2_crit_edge.i22: ; preds = %_ZN9QtPrivate8RefCount5derefEv.exit.i20
  %.pre.i23 = load ptr, ptr %4, align 8
  br label %_ZN9QtPrivate8RefCount5derefEv.exit.thread2.i19

_ZN9QtPrivate8RefCount5derefEv.exit.thread2.i19:  ; preds = %_ZN9QtPrivate8RefCount5derefEv.exit._ZN9QtPrivate8RefCount5derefEv.exit.thread2_crit_edge.i22, %_ZN7QStringD2Ev.exit18
  %55 = phi ptr [ %.pre.i23, %_ZN9QtPrivate8RefCount5derefEv.exit._ZN9QtPrivate8RefCount5derefEv.exit.thread2_crit_edge.i22 ], [ %52, %_ZN7QStringD2Ev.exit18 ]
  call void @_ZN10QArrayData10deallocateEPS_mm(ptr noundef %55, i64 noundef 2, i64 noundef 8) #23
  br label %_ZN7QStringD2Ev.exit24

56:                                               ; preds = %45
  %57 = landingpad { ptr, i32 }
          cleanup
  br label %65

58:                                               ; preds = %_ZN19QualityMapperDialog2trEPKcS1_i.exit
  %59 = landingpad { ptr, i32 }
          cleanup
  call void @_ZN7QStringD2Ev(ptr noundef nonnull align 8 dereferenceable(8) %5) #23
  br label %65

_ZN7QStringD2Ev.exit24:                           ; preds = %_ZN9QtPrivate8RefCount5derefEv.exit.thread2.i19, %_ZN9QtPrivate8RefCount5derefEv.exit.i20, %_ZN7QStringD2Ev.exit18, %25
  %60 = load i32, ptr %14, align 8
  %.not = icmp eq i32 %60, 1
  br i1 %.not, label %64, label %61

61:                                               ; preds = %_ZN7QStringD2Ev.exit24
  %62 = load ptr, ptr %15, align 8
  %63 = call noundef zeroext i1 @_ZN7QObject12blockSignalsEb(ptr noundef nonnull align 8 dereferenceable(16) %62, i1 noundef zeroext false) #23
  br label %64

64:                                               ; preds = %61, %_ZN7QStringD2Ev.exit24
  store i32 0, ptr %14, align 8
  ret void

65:                                               ; preds = %56, %58, %23
  %.sink = phi ptr [ %3, %23 ], [ %4, %58 ], [ %4, %56 ]
  %.pn.pn = phi { ptr, i32 } [ %24, %23 ], [ %59, %58 ], [ %57, %56 ]
  call void @_ZN7QStringD2Ev(ptr noundef nonnull align 8 dereferenceable(8) %.sink) #23
  resume { ptr, i32 } %.pn.pn
}